target datalayout = "e-m:e-p270:32:32-p271:32:32-p272:64:64-i64:64-i128:128-f80:128-n8:16:32:64-S128"
target triple = "x86_64-pc-linux-gnu"

@.str.13 = private unnamed_addr constant [37 x i8] c"Unable to create temporary file '%s'\00", align 1

; Function Attrs: nounwind uwtable
define dso_local i32 @git_mkstemp_mode(ptr noundef %0, i32 noundef %1) #0 {
  %3 = alloca ptr, align 8
  %4 = alloca i32, align 4
  store ptr %0, ptr %3, align 8, !tbaa !4
  store i32 %1, ptr %4, align 4, !tbaa !11
  %5 = load ptr, ptr %3, align 8, !tbaa !4
  %6 = load i32, ptr %4, align 4, !tbaa !11
  %7 = call i32 @git_mkstemps_mode(ptr noundef %5, i32 noundef 0, i32 noundef %6)
  ret i32 %7
}

; Function Attrs: nounwind uwtable
define dso_local i32 @xmkstemp_mode(ptr noundef %0, i32 noundef %1) #0 {
  %3 = alloca ptr, align 8
  %4 = alloca i32, align 4
  %5 = alloca i32, align 4
  %6 = alloca [4096 x i8], align 16
  %7 = alloca i32, align 4
  %8 = alloca ptr, align 8
  store ptr %0, ptr %3, align 8, !tbaa !4
  store i32 %1, ptr %4, align 4, !tbaa !11
  call void @llvm.lifetime.start.p0(i64 4, ptr %5) #13
  call void @llvm.lifetime.start.p0(i64 4096, ptr %6) #13
  %9 = getelementptr inbounds [4096 x i8], ptr %6, i64 0, i64 0
  %10 = load ptr, ptr %3, align 8, !tbaa !4
  %11 = call i64 @gitstrlcpy(ptr noundef %9, ptr noundef %10, i64 noundef 4096)
  %12 = load ptr, ptr %3, align 8, !tbaa !4
  %13 = load i32, ptr %4, align 4, !tbaa !11
  %14 = call i32 @git_mkstemp_mode(ptr noundef %12, i32 noundef %13)
  store i32 %14, ptr %5, align 4, !tbaa !11
  %15 = load i32, ptr %5, align 4, !tbaa !11
  %16 = icmp slt i32 %15, 0
  br i1 %16, label %17, label %32

17:                                               ; preds = %2
  call void @llvm.lifetime.start.p0(i64 4, ptr %7) #13
  %18 = call ptr @__errno_location() #19
  %19 = load i32, ptr %18, align 4, !tbaa !11
  store i32 %19, ptr %7, align 4, !tbaa !11
  call void @llvm.lifetime.start.p0(i64 8, ptr %8) #13
  %20 = load ptr, ptr %3, align 8, !tbaa !4
  %21 = getelementptr inbounds i8, ptr %20, i64 0
  %22 = load i8, ptr %21, align 1, !tbaa !14
  %23 = icmp ne i8 %22, 0
  br i1 %23, label %26, label %24

24:                                               ; preds = %17
  %25 = getelementptr inbounds [4096 x i8], ptr %6, i64 0, i64 0
  store ptr %25, ptr %3, align 8, !tbaa !4
  br label %26

26:                                               ; preds = %24, %17
  %27 = load ptr, ptr %3, align 8, !tbaa !4
  %28 = call ptr @absolute_path(ptr noundef %27)
  store ptr %28, ptr %8, align 8, !tbaa !4
  %29 = load i32, ptr %7, align 4, !tbaa !11
  %30 = call ptr @__errno_location() #19
  store i32 %29, ptr %30, align 4, !tbaa !11
  %31 = load ptr, ptr %8, align 8, !tbaa !4
  call void (ptr, ...) @die_errno(ptr noundef @.str.13, ptr noundef %31) #14
  unreachable

32:                                               ; preds = %2
  %33 = load i32, ptr %5, align 4, !tbaa !11
  call void @llvm.lifetime.end.p0(i64 4096, ptr %6) #13
  call void @llvm.lifetime.end.p0(i64 4, ptr %5) #13
  ret i32 %33
}