; Function Attrs: nounwind uwtable
define dso_local range(i32 0, -2147483648) i32 @xmkstemp_mode(ptr noundef %0, i32 noundef %1) local_unnamed_addr #0 {
  %3 = alloca [4096 x i8], align 16
  call void @llvm.lifetime.start.p0(i64 4096, ptr nonnull %3) #20
  %4 = call i64 @gitstrlcpy(ptr noundef nonnull %3, ptr noundef %0, i64 noundef 4096) #20
  %5 = call range(i32 -1, -2147483648) i32 @git_mkstemps_mode(ptr noundef %0, i32 noundef 0, i32 noundef %1)
  %6 = icmp slt i32 %5, 0
  br i1 %6, label %7, label %12

7:                                                ; preds = %2
  %8 = tail call ptr @__errno_location() #26
  %9 = load i32, ptr %8, align 4, !tbaa !9
  %10 = load i8, ptr %0, align 1, !tbaa !8
  %.not = icmp eq i8 %10, 0
  %spec.select = select i1 %.not, ptr %3, ptr %0
  %11 = call ptr @absolute_path(ptr noundef nonnull %spec.select) #20
  store i32 %9, ptr %8, align 4, !tbaa !9
  call void (ptr, ...) @die_errno(ptr noundef nonnull @.str.13, ptr noundef %11) #21
  unreachable

12:                                               ; preds = %2
  call void @llvm.lifetime.end.p0(i64 4096, ptr nonnull %3) #20
  ret i32 %5
}